target datalayout = "e-m:e-p270:32:32-p271:32:32-p272:64:64-i64:64-i128:128-f80:128-n8:16:32:64-S128"
target triple = "x86_64-pc-linux-gnu"

@.str = private unnamed_addr constant [6 x i8] c"fixed\00", align 1
@.str.1 = private unnamed_addr constant [9 x i8] c"revolute\00", align 1
@.str.2 = private unnamed_addr constant [10 x i8] c"prismatic\00", align 1
@.str.3 = private unnamed_addr constant [9 x i8] c"floating\00", align 1
@.str.4 = private unnamed_addr constant [10 x i8] c"spherical\00", align 1
@.str.5 = private unnamed_addr constant [15 x i8] c"error: invalid\00", align 1

; Function Attrs: mustprogress nounwind uwtable
define dso_local noundef ptr @_ZNK24btInverseDynamicsBullet313MultiBodyTree13MultiBodyImpl17jointTypeToStringERKNS_9JointTypeE(ptr noundef nonnull align 8 dereferenceable(400) %0, ptr noundef nonnull align 4 dereferenceable(4) %1) #1 align 2 {
  %3 = alloca ptr, align 8
  %4 = alloca ptr, align 8
  %5 = alloca ptr, align 8
  store ptr %0, ptr %4, align 8, !tbaa !12
  store ptr %1, ptr %5, align 8, !tbaa !39
  %6 = load ptr, ptr %5, align 8, !tbaa !39
  %7 = load i32, ptr %6, align 4, !tbaa !74
  switch i32 %7, label %13 [
    i32 0, label %8
    i32 1, label %9
    i32 2, label %10
    i32 3, label %11
    i32 4, label %12
  ]

8:                                                ; preds = %2
  store ptr @.str, ptr %3, align 8
  br label %14

9:                                                ; preds = %2
  store ptr @.str.1, ptr %3, align 8
  br label %14

10:                                               ; preds = %2
  store ptr @.str.2, ptr %3, align 8
  br label %14

11:                                               ; preds = %2
  store ptr @.str.3, ptr %3, align 8
  br label %14

12:                                               ; preds = %2
  store ptr @.str.4, ptr %3, align 8
  br label %14

13:                                               ; preds = %2
  store ptr @.str.5, ptr %3, align 8
  br label %14

14:                                               ; preds = %13, %12, %11, %10, %9, %8
  %15 = load ptr, ptr %3, align 8
  ret ptr %15
}