; Function Attrs: mustprogress nofree norecurse nosync nounwind willreturn memory(argmem: read) uwtable
define dso_local noundef nonnull ptr @_ZNK24btInverseDynamicsBullet313MultiBodyTree13MultiBodyImpl17jointTypeToStringERKNS_9JointTypeE(ptr noundef nonnull readnone align 8 captures(none) dereferenceable(400) %0, ptr noundef nonnull readonly align 4 captures(none) dereferenceable(4) %1) local_unnamed_addr #6 align 2 {
  %3 = load i32, ptr %1, align 4, !tbaa !87
  %4 = icmp ult i32 %3, 5
  br i1 %4, label %switch.lookup, label %6

switch.lookup:                                    ; preds = %2
  %5 = zext nneg i32 %3 to i64
  %switch.gep = getelementptr inbounds nuw [5 x ptr], ptr @switch.table._ZNK24btInverseDynamicsBullet313MultiBodyTree13MultiBodyImpl15getJointTypeStrEiPPKc, i64 0, i64 %5
  %switch.load = load ptr, ptr %switch.gep, align 8
  br label %6

6:                                                ; preds = %2, %switch.lookup
  %.0 = phi ptr [ %switch.load, %switch.lookup ], [ @.str.5, %2 ]
  ret ptr %.0
}